; ModuleID = 'source-C-CXX/52/184.c'
source_filename = "source-C-CXX/52/184.c"
target datalayout = "e-m:e-p270:32:32-p271:32:32-p272:64:64-i64:64-f80:128-n8:16:32:64-S128"
target triple = "x86_64-pc-linux-gnu"

@.str = private unnamed_addr constant [3 x i8] c"%d\00", align 1
@.str.1 = private unnamed_addr constant [4 x i8] c",%d\00", align 1

; Function Attrs: nofree nounwind sspstrong uwtable
define dso_local void @main() local_unnamed_addr #0 {
  %1 = alloca [300 x i32], align 16
  %2 = alloca i32, align 4
  %3 = alloca [1000 x i32], align 16
  %4 = bitcast [300 x i32]* %1 to i8*
  call void @llvm.lifetime.start.p0i8(i64 1200, i8* nonnull %4) #5
  call void @llvm.memset.p0i8.i64(i8* noundef nonnull align 16 dereferenceable(1200) %4, i8 0, i64 1200, i1 false)
  %5 = bitcast i32* %2 to i8*
  call void @llvm.lifetime.start.p0i8(i64 4, i8* nonnull %5) #5
  store i32 0, i32* %2, align 4, !tbaa !5
  %6 = bitcast [1000 x i32]* %3 to i8*
  call void @llvm.lifetime.start.p0i8(i64 4000, i8* nonnull %6) #5
  call void @llvm.memset.p0i8.i64(i8* noundef nonnull align 16 dereferenceable(4000) %6, i8 0, i64 4000, i1 false)
  %7 = call i32 (i8*, ...) @__isoc99_scanf(i8* getelementptr inbounds ([3 x i8], [3 x i8]* @.str, i64 0, i64 0), i32* nonnull %2)
  %8 = load i32, i32* %2, align 4, !tbaa !5
  %9 = icmp sgt i32 %8, 0
  br i1 %9, label %18, label %58

10:                                               ; preds = %18
  %11 = icmp sgt i32 %23, 0
  br i1 %11, label %12, label %58

12:                                               ; preds = %10
  %13 = zext i32 %23 to i64
  %14 = and i64 %13, 1
  %15 = icmp eq i32 %23, 1
  br i1 %15, label %46, label %16

16:                                               ; preds = %12
  %17 = and i64 %13, 4294967294
  br label %26

18:                                               ; preds = %0, %18
  %19 = phi i64 [ %22, %18 ], [ 0, %0 ]
  %20 = getelementptr inbounds [300 x i32], [300 x i32]* %1, i64 0, i64 %19
  %21 = call i32 (i8*, ...) @__isoc99_scanf(i8* getelementptr inbounds ([3 x i8], [3 x i8]* @.str, i64 0, i64 0), i32* nonnull %20)
  %22 = add nuw nsw i64 %19, 1
  %23 = load i32, i32* %2, align 4, !tbaa !5
  %24 = sext i32 %23 to i64
  %25 = icmp slt i64 %22, %24
  br i1 %25, label %18, label %10, !llvm.loop !9

26:                                               ; preds = %81, %16
  %27 = phi i64 [ 0, %16 ], [ %82, %81 ]
  %28 = phi i64 [ %17, %16 ], [ %83, %81 ]
  %29 = getelementptr inbounds [300 x i32], [300 x i32]* %1, i64 0, i64 %27
  %30 = load i32, i32* %29, align 8, !tbaa !5
  %31 = sext i32 %30 to i64
  %32 = getelementptr inbounds [1000 x i32], [1000 x i32]* %3, i64 0, i64 %31
  %33 = load i32, i32* %32, align 4, !tbaa !5
  %34 = add nsw i32 %33, 1
  store i32 %34, i32* %32, align 4, !tbaa !5
  %35 = icmp sgt i32 %33, 0
  br i1 %35, label %36, label %37

36:                                               ; preds = %26
  store i32 0, i32* %29, align 8, !tbaa !5
  br label %37

37:                                               ; preds = %26, %36
  %38 = or i64 %27, 1
  %39 = getelementptr inbounds [300 x i32], [300 x i32]* %1, i64 0, i64 %38
  %40 = load i32, i32* %39, align 4, !tbaa !5
  %41 = sext i32 %40 to i64
  %42 = getelementptr inbounds [1000 x i32], [1000 x i32]* %3, i64 0, i64 %41
  %43 = load i32, i32* %42, align 4, !tbaa !5
  %44 = add nsw i32 %43, 1
  store i32 %44, i32* %42, align 4, !tbaa !5
  %45 = icmp sgt i32 %43, 0
  br i1 %45, label %80, label %81

46:                                               ; preds = %81, %12
  %47 = phi i64 [ 0, %12 ], [ %82, %81 ]
  %48 = icmp eq i64 %14, 0
  br i1 %48, label %58, label %49

49:                                               ; preds = %46
  %50 = getelementptr inbounds [300 x i32], [300 x i32]* %1, i64 0, i64 %47
  %51 = load i32, i32* %50, align 4, !tbaa !5
  %52 = sext i32 %51 to i64
  %53 = getelementptr inbounds [1000 x i32], [1000 x i32]* %3, i64 0, i64 %52
  %54 = load i32, i32* %53, align 4, !tbaa !5
  %55 = add nsw i32 %54, 1
  store i32 %55, i32* %53, align 4, !tbaa !5
  %56 = icmp sgt i32 %54, 0
  br i1 %56, label %57, label %58

57:                                               ; preds = %49
  store i32 0, i32* %50, align 4, !tbaa !5
  br label %58

58:                                               ; preds = %46, %49, %57, %0, %10
  %59 = getelementptr inbounds [300 x i32], [300 x i32]* %1, i64 0, i64 0
  %60 = load i32, i32* %59, align 16, !tbaa !5
  %61 = call i32 (i8*, ...) @printf(i8* nonnull dereferenceable(1) getelementptr inbounds ([3 x i8], [3 x i8]* @.str, i64 0, i64 0), i32 %60)
  %62 = load i32, i32* %2, align 4, !tbaa !5
  %63 = icmp sgt i32 %62, 1
  br i1 %63, label %64, label %78

64:                                               ; preds = %58, %73
  %65 = phi i32 [ %74, %73 ], [ %62, %58 ]
  %66 = phi i64 [ %75, %73 ], [ 1, %58 ]
  %67 = getelementptr inbounds [300 x i32], [300 x i32]* %1, i64 0, i64 %66
  %68 = load i32, i32* %67, align 4, !tbaa !5
  %69 = icmp eq i32 %68, 0
  br i1 %69, label %73, label %70

70:                                               ; preds = %64
  %71 = call i32 (i8*, ...) @printf(i8* nonnull dereferenceable(1) getelementptr inbounds ([4 x i8], [4 x i8]* @.str.1, i64 0, i64 0), i32 %68)
  %72 = load i32, i32* %2, align 4, !tbaa !5
  br label %73

73:                                               ; preds = %64, %70
  %74 = phi i32 [ %65, %64 ], [ %72, %70 ]
  %75 = add nuw nsw i64 %66, 1
  %76 = sext i32 %74 to i64
  %77 = icmp slt i64 %75, %76
  br i1 %77, label %64, label %78, !llvm.loop !11

78:                                               ; preds = %73, %58
  %79 = call i32 @putchar(i32 10)
  call void @llvm.lifetime.end.p0i8(i64 4000, i8* nonnull %6) #5
  call void @llvm.lifetime.end.p0i8(i64 4, i8* nonnull %5) #5
  call void @llvm.lifetime.end.p0i8(i64 1200, i8* nonnull %4) #5
  ret void

80:                                               ; preds = %37
  store i32 0, i32* %39, align 4, !tbaa !5
  br label %81

81:                                               ; preds = %80, %37
  %82 = add nuw nsw i64 %27, 2
  %83 = add i64 %28, -2
  %84 = icmp eq i64 %83, 0
  br i1 %84, label %46, label %26, !llvm.loop !12
}

; Function Attrs: argmemonly mustprogress nofree nosync nounwind willreturn
declare void @llvm.lifetime.start.p0i8(i64 immarg, i8* nocapture) #1

; Function Attrs: argmemonly mustprogress nofree nounwind willreturn writeonly
declare void @llvm.memset.p0i8.i64(i8* nocapture writeonly, i8, i64, i1 immarg) #2

; Function Attrs: nofree nounwind
declare noundef i32 @__isoc99_scanf(i8* nocapture noundef readonly, ...) local_unnamed_addr #3

; Function Attrs: nofree nounwind
declare noundef i32 @printf(i8* nocapture noundef readonly, ...) local_unnamed_addr #3

; Function Attrs: argmemonly mustprogress nofree nosync nounwind willreturn
declare void @llvm.lifetime.end.p0i8(i64 immarg, i8* nocapture) #1

; Function Attrs: nofree nounwind
declare noundef i32 @putchar(i32 noundef) local_unnamed_addr #4


!llvm.module.flags = !{!0, !1, !2, !3}
!llvm.ident = !{!4}

!0 = !{i32 1, !"wchar_size", i32 4}
!1 = !{i32 7, !"PIC Level", i32 2}
!2 = !{i32 7, !"PIE Level", i32 2}
!3 = !{i32 7, !"uwtable", i32 1}
!4 = !{!"clang version 13.0.0"}
!5 = !{!6, !6, i64 0}
!6 = !{!"int", !7, i64 0}
!7 = !{!"omnipotent char", !8, i64 0}
!8 = !{!"Simple C/C++ TBAA"}
!9 = distinct !{!9, !10}
!10 = !{!"llvm.loop.mustprogress"}
!11 = distinct !{!11, !10}
!12 = distinct !{!12, !10}
